(lp0
S'host_since'
p1
aS'latitude'
p2
aS'host_response_rate'
p3
aS'availability_365'
p4
aS'price'
p5
aS'first_review'
p6
aS'reviews_pc_3'
p7
aS'longitude'
p8
aS'reviews_pc_2'
p9
aS'reviews_per_month'
p10
aS'brightness_mean'
p11
aS'reviews_pc_9'
p12
aS'pictures_pc_30'
p13
aS'reviews_pc_4'
p14
aS'pictures_pc_1'
p15
aS'reviews_pc_8'
p16
aS'last_update_days'
p17
aS'pictures_pc_5'
p18
aS'pictures_pc_13'
p19
aS'reviews_pc_19'
p20
aS'reviews_pc_6'
p21
aS'pictures_pc_31'
p22
aS'pictures_pc_10'
p23
aS'reviews_pc_10'
p24
aS'pictures_pc_24'
p25
aS'pictures_pc_42'
p26
aS'reviews_pc_5'
p27
aS'pictures_pc_17'
p28
aS'pictures_pc_38'
p29
aS'pictures_pc_47'
p30
a.