(lp0
S'accommodates'
p1
aS'amenities__24hourcheckin'
p2
aS'amenities__airconditioning'
p3
aS'amenities__bathtub'
p4
aS'amenities__breakfast'
p5
aS'amenities__childrensbooksandtoys'
p6
aS'amenities__childrensdinnerware'
p7
aS'amenities__familykidfriendly'
p8
aS'amenities__firstaidkit'
p9
aS'amenities__freeparkingonpremises'
p10
aS'amenities__gameconsole'
p11
aS'amenities__hairdryer'
p12
aS'amenities__hottub'
p13
aS'amenities__internet'
p14
aS'amenities__kitchen'
p15
aS'amenities__petsallowed'
p16
aS'amenities__petsliveonthisproperty'
p17
aS'amenities__selfcheckin'
p18
aS'amenities__shampoo'
p19
aS'amenities__smokingallowed'
p20
aS'amenities__translationmissingenhostingamenity49'
p21
aS'amenities__translationmissingenhostingamenity50'
p22
aS'amenities__tv'
p23
aS'amenities__washer'
p24
aS'amsterdam'
p25
aS'availability_365'
p26
aS'barcelona'
p27
aS'berlin'
p28
aS'brightness_mean'
p29
aS'brussels'
p30
aS'distance_to_center_Amsterdam'
p31
aS'distance_to_center_Antwerp'
p32
aS'distance_to_center_Berlin'
p33
aS'distance_to_center_Brussels'
p34
aS'distance_to_center_London'
p35
aS'distance_to_center_Paris'
p36
aS'dublin'
p37
aS'first_review'
p38
aS'host_identity_verified'
p39
aS'host_is_superhost'
p40
aS'host_response_rate'
p41
aS'host_response_time'
p42
aS'host_since'
p43
aS'host_verification_facebook'
p44
aS'host_verification_government_id'
p45
aS'host_verification_jumio'
p46
aS'host_verification_manual_offline'
p47
aS'host_verification_offline_government_id'
p48
aS'instant_bookable'
p49
aS'last_update_days'
p50
aS'latitude'
p51
aS'longitude'
p52
aS'neighbourhood_group_cleansed__centro'
p53
aS'neighbourhood_group_cleansed__eixample'
p54
aS'neighbourhood_group_cleansed__isole'
p55
aS'paris'
p56
aS'pictures_pc_1'
p57
aS'pictures_pc_11'
p58
aS'pictures_pc_26'
p59
aS'pictures_pc_32'
p60
aS'pictures_pc_40'
p61
aS'pictures_pc_43'
p62
aS'pictures_pc_47'
p63
aS'pictures_pc_6'
p64
aS'price'
p65
aS'property_type__apartment'
p66
aS'r_contrast'
p67
aS'require_guest_phone_verification'
p68
aS'review_ratio_en'
p69
aS'review_ratio_fr'
p70
aS'review_ratio_it'
p71
aS'review_scores_accuracy'
p72
aS'review_scores_checkin'
p73
aS'review_scores_communication'
p74
aS'review_scores_location'
p75
aS'review_scores_rating'
p76
aS'review_scores_value'
p77
aS'reviewed_more_than_40_ago'
p78
aS'reviewed_more_than_50_ago'
p79
aS'reviewed_more_than_70_ago'
p80
aS'reviewed_more_than_90_ago'
p81
aS'reviews_pc_2'
p82
aS'reviews_pc_3'
p83
aS'reviews_pc_4'
p84
aS'reviews_pc_5'
p85
aS'reviews_per_month'
p86
aS'venice'
p87
aS'vienna'
p88
a.