(lp0
S'accommodates'
p1
aS'amenities__airconditioning'
p2
aS'amenities__translationmissingenhostingamenity50'
p3
aS'availability_365'
p4
aS'host_response_time'
p5
aS'host_since'
p6
aS'instant_bookable'
p7
aS'latitude'
p8
aS'review_scores_checkin'
p9
aS'review_scores_communication'
p10
aS'review_scores_rating'
p11
aS'paris'
p12
aS'reviews_pc_3'
p13
aS'brightness_mean'
p14
aS'distance_to_center_Amsterdam'
p15
aS'distance_to_center_Antwerp'
p16
aS'distance_to_center_Berlin'
p17
aS'distance_to_center_Brussels'
p18
aS'distance_to_center_London'
p19
aS'distance_to_center_Paris'
p20
a.