(lp0
S'accommodates'
p1
aS'amenities__24hourcheckin'
p2
aS'amenities__airconditioning'
p3
aS'amenities__bathtub'
p4
aS'amenities__breakfast'
p5
aS'amenities__childrensbooksandtoys'
p6
aS'amenities__childrensdinnerware'
p7
aS'amenities__familykidfriendly'
p8
aS'amenities__firstaidkit'
p9
aS'amenities__freeparkingonpremises'
p10
aS'amenities__gameconsole'
p11
aS'amenities__hairdryer'
p12
aS'amenities__hottub'
p13
aS'amenities__internet'
p14
aS'amenities__kitchen'
p15
aS'amenities__petsallowed'
p16
aS'amenities__petsliveonthisproperty'
p17
aS'amenities__selfcheckin'
p18
aS'amenities__shampoo'
p19
aS'amenities__smokingallowed'
p20
aS'amenities__translationmissingenhostingamenity49'
p21
aS'amenities__translationmissingenhostingamenity50'
p22
aS'amenities__tv'
p23
aS'amenities__washer'
p24
aS'availability_365'
p25
aS'first_review'
p26
aS'host_identity_verified'
p27
aS'host_is_superhost'
p28
aS'host_response_rate'
p29
aS'host_response_time'
p30
aS'host_since'
p31
aS'host_verification_facebook'
p32
aS'host_verification_government_id'
p33
aS'host_verification_jumio'
p34
aS'host_verification_manual_offline'
p35
aS'host_verification_offline_government_id'
p36
aS'instant_bookable'
p37
aS'last_update_days'
p38
aS'neighbourhood_group_cleansed__centro'
p39
aS'neighbourhood_group_cleansed__eixample'
p40
aS'neighbourhood_group_cleansed__isole'
p41
aS'price'
p42
aS'property_type__apartment'
p43
aS'require_guest_phone_verification'
p44
aS'review_scores_accuracy'
p45
aS'review_scores_checkin'
p46
aS'review_scores_communication'
p47
aS'review_scores_location'
p48
aS'review_scores_rating'
p49
aS'review_scores_value'
p50
aS'reviews_per_month'
p51
aS'amsterdam'
p52
aS'barcelona'
p53
aS'berlin'
p54
aS'brussels'
p55
aS'dublin'
p56
aS'paris'
p57
aS'venice'
p58
aS'vienna'
p59
aS'reviewed_more_than_40_ago'
p60
aS'reviewed_more_than_50_ago'
p61
aS'reviewed_more_than_70_ago'
p62
aS'reviewed_more_than_90_ago'
p63
aS'review_ratio_en'
p64
aS'review_ratio_fr'
p65
aS'review_ratio_it'
p66
aS'reviews_pc_3'
p67
aS'pictures_pc_1'
p68
aS'r_contrast'
p69
aS'brightness_mean'
p70
aS'distance_to_center_Amsterdam'
p71
aS'distance_to_center_Antwerp'
p72
aS'distance_to_center_Berlin'
p73
aS'distance_to_center_Paris'
p74
a.