(lp0
S'amenities__airconditioning'
p1
aS'amenities__breakfast'
p2
aS'amenities__translationmissingenhostingamenity49'
p3
aS'amenities__translationmissingenhostingamenity50'
p4
aS'availability_365'
p5
aS'host_response_time'
p6
aS'host_verification_government_id'
p7
aS'instant_bookable'
p8
aS'neighbourhood_group_cleansed__centro'
p9
aS'neighbourhood_group_cleansed__eixample'
p10
aS'neighbourhood_group_cleansed__isole'
p11
aS'require_guest_phone_verification'
p12
aS'amsterdam'
p13
aS'barcelona'
p14
aS'paris'
p15
aS'venice'
p16
aS'distance_to_center_Amsterdam'
p17
aS'distance_to_center_Antwerp'
p18
aS'distance_to_center_Brussels'
p19
aS'distance_to_center_Paris'
p20
a.